target datalayout = "e-m:e-p270:32:32-p271:32:32-p272:64:64-i64:64-i128:128-f80:128-n8:16:32:64-S128"
target triple = "x86_64-pc-linux-gnu"

%"class.gmx::PhysicalNodeCommunicator" = type { ptr, i32, i32, %"class.std::unique_ptr" }
%"class.std::unique_ptr" = type { %"struct.std::__uniq_ptr_data" }
%"struct.std::__uniq_ptr_data" = type { %"class.std::__uniq_ptr_impl" }
%"class.std::__uniq_ptr_impl" = type { %"class.std::tuple" }
%"class.std::tuple" = type { %"struct.std::_Tuple_impl" }
%"struct.std::_Tuple_impl" = type { %"struct.std::_Head_base.1" }
%"struct.std::_Head_base.1" = type { ptr }

@TMPI_INT = external constant ptr, align 8

; Function Attrs: mustprogress uwtable
define void @_Z24analyzeThreadsOnThisNodeRKN3gmx24PhysicalNodeCommunicatorEiPiS3_(ptr noundef nonnull align 8 dereferenceable(24) %0, i32 noundef %1, ptr noundef %2, ptr noundef %3) #3 {
  %5 = alloca ptr, align 8
  %6 = alloca i32, align 4
  %7 = alloca ptr, align 8
  %8 = alloca ptr, align 8
  store ptr %0, ptr %5, align 8, !tbaa !13
  store i32 %1, ptr %6, align 4, !tbaa !11
  store ptr %2, ptr %7, align 8, !tbaa !15
  store ptr %3, ptr %8, align 8, !tbaa !15
  %9 = load ptr, ptr %8, align 8, !tbaa !15
  store i32 0, ptr %9, align 4, !tbaa !11
  %10 = load i32, ptr %6, align 4, !tbaa !11
  %11 = load ptr, ptr %7, align 8, !tbaa !15
  store i32 %10, ptr %11, align 4, !tbaa !11
  %12 = load ptr, ptr %5, align 8, !tbaa !13
  %13 = getelementptr inbounds nuw %"class.gmx::PhysicalNodeCommunicator", ptr %12, i32 0, i32 1
  %14 = load i32, ptr %13, align 8, !tbaa !17
  %15 = icmp sgt i32 %14, 1
  br i1 %15, label %16, label %33

16:                                               ; preds = %4
  %17 = load ptr, ptr %8, align 8, !tbaa !15
  %18 = load ptr, ptr @TMPI_INT, align 8, !tbaa !28
  %19 = load ptr, ptr %5, align 8, !tbaa !13
  %20 = getelementptr inbounds nuw %"class.gmx::PhysicalNodeCommunicator", ptr %19, i32 0, i32 0
  %21 = load ptr, ptr %20, align 8, !tbaa !30
  %22 = call noundef i32 @_Z9tMPI_ScanPKvPviP14tmpi_datatype_7tMPI_OpP10tmpi_comm_(ptr noundef %6, ptr noundef %17, i32 noundef 1, ptr noundef %18, i32 noundef 2, ptr noundef %21)
  %23 = load i32, ptr %6, align 4, !tbaa !11
  %24 = load ptr, ptr %8, align 8, !tbaa !15
  %25 = load i32, ptr %24, align 4, !tbaa !11
  %26 = sub nsw i32 %25, %23
  store i32 %26, ptr %24, align 4, !tbaa !11
  %27 = load ptr, ptr %7, align 8, !tbaa !15
  %28 = load ptr, ptr @TMPI_INT, align 8, !tbaa !28
  %29 = load ptr, ptr %5, align 8, !tbaa !13
  %30 = getelementptr inbounds nuw %"class.gmx::PhysicalNodeCommunicator", ptr %29, i32 0, i32 0
  %31 = load ptr, ptr %30, align 8, !tbaa !30
  %32 = call noundef i32 @_Z14tMPI_AllreducePKvPviP14tmpi_datatype_7tMPI_OpP10tmpi_comm_(ptr noundef %6, ptr noundef %27, i32 noundef 1, ptr noundef %28, i32 noundef 2, ptr noundef %31)
  br label %33

33:                                               ; preds = %16, %4
  ret void
}