; Function Attrs: mustprogress uwtable
define void @_Z24analyzeThreadsOnThisNodeRKN3gmx24PhysicalNodeCommunicatorEiPiS3_(ptr noundef nonnull readonly align 8 captures(none) dereferenceable(24) %0, i32 noundef %1, ptr noundef initializes((0, 4)) %2, ptr noundef initializes((0, 4)) %3) local_unnamed_addr #2 {
  %5 = alloca i32, align 4
  store i32 %1, ptr %5, align 4, !tbaa !4
  store i32 0, ptr %3, align 4, !tbaa !4
  store i32 %1, ptr %2, align 4, !tbaa !4
  %6 = getelementptr inbounds nuw i8, ptr %0, i64 8
  %7 = load i32, ptr %6, align 8, !tbaa !8
  %8 = icmp sgt i32 %7, 1
  br i1 %8, label %9, label %18

9:                                                ; preds = %4
  %10 = load ptr, ptr @TMPI_INT, align 8, !tbaa !20
  %11 = load ptr, ptr %0, align 8, !tbaa !22
  %12 = call noundef i32 @_Z9tMPI_ScanPKvPviP14tmpi_datatype_7tMPI_OpP10tmpi_comm_(ptr noundef nonnull %5, ptr noundef nonnull %3, i32 noundef 1, ptr noundef %10, i32 noundef 2, ptr noundef %11)
  %13 = load i32, ptr %5, align 4, !tbaa !4
  %14 = load i32, ptr %3, align 4, !tbaa !4
  %15 = sub nsw i32 %14, %13
  store i32 %15, ptr %3, align 4, !tbaa !4
  %16 = load ptr, ptr %0, align 8, !tbaa !22
  %17 = call noundef i32 @_Z14tMPI_AllreducePKvPviP14tmpi_datatype_7tMPI_OpP10tmpi_comm_(ptr noundef nonnull %5, ptr noundef nonnull %2, i32 noundef 1, ptr noundef %10, i32 noundef 2, ptr noundef %16)
  br label %18

18:                                               ; preds = %9, %4
  ret void
}